target datalayout = "e-m:e-p270:32:32-p271:32:32-p272:64:64-i64:64-i128:128-f80:128-n8:16:32:64-S128"
target triple = "x86_64-unknown-linux-gnu"

%"class.FLAC::Metadata::CueSheet::Track" = type { ptr, ptr }
%struct.FLAC__StreamMetadata_CueSheet_Index = type { i64, i8 }
%struct.FLAC__StreamMetadata_CueSheet_Track = type { i64, i8, [13 x i8], i8, i8, ptr }

; Function Attrs: mustprogress nounwind sspstrong uwtable
define { i64, i8 } @_ZNK4FLAC8Metadata8CueSheet5Track9get_indexEj(ptr noundef nonnull align 8 dereferenceable(16) %this, i32 noundef %i) #5 align 2 {
entry:
  %retval = alloca %struct.FLAC__StreamMetadata_CueSheet_Index, align 8
  %this.addr = alloca ptr, align 8
  %i.addr = alloca i32, align 4
  store ptr %this, ptr %this.addr, align 8
  store i32 %i, ptr %i.addr, align 4
  %this1 = load ptr, ptr %this.addr, align 8
  %object_ = getelementptr inbounds %"class.FLAC::Metadata::CueSheet::Track", ptr %this1, i32 0, i32 1
  %0 = load ptr, ptr %object_, align 8
  %indices = getelementptr inbounds %struct.FLAC__StreamMetadata_CueSheet_Track, ptr %0, i32 0, i32 5
  %1 = load ptr, ptr %indices, align 8
  %2 = load i32, ptr %i.addr, align 4
  %idxprom = zext i32 %2 to i64
  %arrayidx = getelementptr inbounds %struct.FLAC__StreamMetadata_CueSheet_Index, ptr %1, i64 %idxprom
  call void @llvm.memcpy.p0.p0.i64(ptr align 8 %retval, ptr align 8 %arrayidx, i64 16, i1 false)
  %3 = load { i64, i8 }, ptr %retval, align 8
  ret { i64, i8 } %3
}