; Function Attrs: mustprogress nofree norecurse nosync nounwind sspstrong willreturn memory(read, inaccessiblemem: none) uwtable
define { i64, i8 } @_ZNK4FLAC8Metadata8CueSheet5Track9get_indexEj(ptr nocapture noundef nonnull readonly align 8 dereferenceable(16) %this, i32 noundef %i) local_unnamed_addr #7 align 2 {
entry:
  %object_ = getelementptr inbounds i8, ptr %this, i64 8
  %0 = load ptr, ptr %object_, align 8
  %indices = getelementptr inbounds i8, ptr %0, i64 24
  %1 = load ptr, ptr %indices, align 8
  %idxprom = zext i32 %i to i64
  %arrayidx = getelementptr inbounds %struct.FLAC__StreamMetadata_CueSheet_Index, ptr %1, i64 %idxprom
  %retval.sroa.0.0.copyload = load i64, ptr %arrayidx, align 8
  %retval.sroa.2.0.arrayidx.sroa_idx = getelementptr inbounds i8, ptr %arrayidx, i64 8
  %retval.sroa.2.0.copyload = load i8, ptr %retval.sroa.2.0.arrayidx.sroa_idx, align 8
  %.fca.0.insert = insertvalue { i64, i8 } poison, i64 %retval.sroa.0.0.copyload, 0
  %.fca.1.insert = insertvalue { i64, i8 } %.fca.0.insert, i8 %retval.sroa.2.0.copyload, 1
  ret { i64, i8 } %.fca.1.insert
}